; Function Attrs: nounwind uwtable
define internal void @relcbfunc(ptr noundef %0) #0 {
  %2 = tail call i32 @pthread_mutex_lock(ptr noundef %0) #16
  %3 = icmp eq i32 %2, 35
  br i1 %3, label %4, label %pmix_obj_update.exit

4:                                                ; preds = %1
  %5 = tail call ptr @__errno_location() #18
  store i32 35, ptr %5, align 4, !tbaa !3
  tail call void @perror(ptr noundef nonnull @.str.37) #19
  tail call void @abort() #20
  unreachable

pmix_obj_update.exit:                             ; preds = %1
  %6 = getelementptr inbounds nuw i8, ptr %0, i64 48
  %7 = load i32, ptr %6, align 8, !tbaa !16
  %8 = add nsw i32 %7, -1
  store i32 %8, ptr %6, align 8, !tbaa !16
  %9 = tail call i32 @pthread_mutex_unlock(ptr noundef %0) #16
  %10 = icmp eq i32 %8, 0
  br i1 %10, label %11, label %25

11:                                               ; preds = %pmix_obj_update.exit
  %12 = getelementptr inbounds nuw i8, ptr %0, i64 40
  %13 = load ptr, ptr %12, align 8, !tbaa !13
  %14 = getelementptr inbounds nuw i8, ptr %13, i64 48
  %15 = load ptr, ptr %14, align 8, !tbaa !29
  %16 = load ptr, ptr %15, align 8, !tbaa !18
  %.not6.i = icmp eq ptr %16, null
  br i1 %.not6.i, label %pmix_obj_run_destructors.exit, label %.lr.ph.i

.lr.ph.i:                                         ; preds = %11, %.lr.ph.i
  %17 = phi ptr [ %19, %.lr.ph.i ], [ %16, %11 ]
  %.07.i = phi ptr [ %18, %.lr.ph.i ], [ %15, %11 ]
  tail call void %17(ptr noundef %0) #16
  %18 = getelementptr inbounds nuw i8, ptr %.07.i, i64 8
  %19 = load ptr, ptr %18, align 8, !tbaa !18
  %.not.i = icmp eq ptr %19, null
  br i1 %.not.i, label %pmix_obj_run_destructors.exit, label %.lr.ph.i, !llvm.loop !30

pmix_obj_run_destructors.exit:                    ; preds = %.lr.ph.i, %11
  %20 = getelementptr inbounds nuw i8, ptr %0, i64 96
  %21 = load ptr, ptr %20, align 8, !tbaa !79
  %.not = icmp eq ptr %21, null
  br i1 %.not, label %24, label %22

22:                                               ; preds = %pmix_obj_run_destructors.exit
  %23 = getelementptr inbounds nuw i8, ptr %0, i64 56
  tail call void %21(ptr noundef nonnull %23, ptr noundef nonnull %0) #16
  br label %25

24:                                               ; preds = %pmix_obj_run_destructors.exit
  tail call void @free(ptr noundef nonnull %0) #16
  br label %25

25:                                               ; preds = %22, %24, %pmix_obj_update.exit
  ret void
}